target datalayout = "e-m:e-p270:32:32-p271:32:32-p272:64:64-i64:64-i128:128-f80:128-n8:16:32:64-S128"
target triple = "x86_64-unknown-linux-gnu"

%"class.llvh::ArrayRef" = type { ptr, i64 }
%"struct.hermes::hbc::BytecodeFileHeader" = type { i64, i32, [20 x i8], i32, i32, i32, i32, i32, i32, i32, i32, i32, i32, i32, i32, i32, i32, i32, i32, i32, i32, i32, %"union.hermes::hbc::BytecodeOptions", [19 x i8] }
%"union.hermes::hbc::BytecodeOptions" = type { %struct.anon }
%struct.anon = type { i8 }
%"struct.std::array" = type { [20 x i8] }
%"struct.hermes::hbc::BytecodeFileFooter" = type { [20 x i8] }

; Function Attrs: mustprogress nounwind uwtable
define linkonce_odr noundef i32 @_ZSt8__memcmpIhhEiPKT_PKT0_m(ptr noundef %__first1, ptr noundef %__first2, i64 noundef %__num) #0 comdat {
entry:
  %__first1.addr = alloca ptr, align 8
  %__first2.addr = alloca ptr, align 8
  %__num.addr = alloca i64, align 8
  store ptr %__first1, ptr %__first1.addr, align 8
  store ptr %__first2, ptr %__first2.addr, align 8
  store i64 %__num, ptr %__num.addr, align 8
  %0 = load ptr, ptr %__first1.addr, align 8
  %1 = load ptr, ptr %__first2.addr, align 8
  %2 = load i64, ptr %__num.addr, align 8
  %mul = mul i64 1, %2
  %call = call i32 @memcmp(ptr noundef %0, ptr noundef %1, i64 noundef %mul) #12
  ret i32 %call
}

; Function Attrs: mustprogress nounwind uwtable
define linkonce_odr noundef zeroext i1 @_ZNSt7__equalILb1EE5equalIhEEbPKT_S4_S4_(ptr noundef %__first1, ptr noundef %__last1, ptr noundef %__first2) #0 comdat align 2 {
entry:
  %retval = alloca i1, align 1
  %__first1.addr = alloca ptr, align 8
  %__last1.addr = alloca ptr, align 8
  %__first2.addr = alloca ptr, align 8
  %__len = alloca i64, align 8
  store ptr %__first1, ptr %__first1.addr, align 8
  store ptr %__last1, ptr %__last1.addr, align 8
  store ptr %__first2, ptr %__first2.addr, align 8
  %0 = load ptr, ptr %__last1.addr, align 8
  %1 = load ptr, ptr %__first1.addr, align 8
  %sub.ptr.lhs.cast = ptrtoint ptr %0 to i64
  %sub.ptr.rhs.cast = ptrtoint ptr %1 to i64
  %sub.ptr.sub = sub i64 %sub.ptr.lhs.cast, %sub.ptr.rhs.cast
  store i64 %sub.ptr.sub, ptr %__len, align 8
  %2 = load i64, ptr %__len, align 8
  %tobool = icmp ne i64 %2, 0
  br i1 %tobool, label %if.then, label %if.end

if.then:                                          ; preds = %entry
  %3 = load ptr, ptr %__first1.addr, align 8
  %4 = load ptr, ptr %__first2.addr, align 8
  %5 = load i64, ptr %__len, align 8
  %call = call noundef i32 @_ZSt8__memcmpIhhEiPKT_PKT0_m(ptr noundef %3, ptr noundef %4, i64 noundef %5)
  %tobool1 = icmp ne i32 %call, 0
  %lnot = xor i1 %tobool1, true
  store i1 %lnot, ptr %retval, align 1
  br label %return

if.end:                                           ; preds = %entry
  store i1 true, ptr %retval, align 1
  br label %return

return:                                           ; preds = %if.end, %if.then
  %6 = load i1, ptr %retval, align 1
  ret i1 %6
}

; Function Attrs: mustprogress nounwind uwtable
define linkonce_odr noundef zeroext i1 @_ZSt12__equal_aux1IPhPKhEbT_S3_T0_(ptr noundef %__first1, ptr noundef %__last1, ptr noundef %__first2) #0 comdat {
entry:
  %__first1.addr = alloca ptr, align 8
  %__last1.addr = alloca ptr, align 8
  %__first2.addr = alloca ptr, align 8
  %__simple = alloca i8, align 1
  store ptr %__first1, ptr %__first1.addr, align 8
  store ptr %__last1, ptr %__last1.addr, align 8
  store ptr %__first2, ptr %__first2.addr, align 8
  store i8 1, ptr %__simple, align 1
  %0 = load ptr, ptr %__first1.addr, align 8
  %1 = load ptr, ptr %__last1.addr, align 8
  %2 = load ptr, ptr %__first2.addr, align 8
  %call = call noundef zeroext i1 @_ZNSt7__equalILb1EE5equalIhEEbPKT_S4_S4_(ptr noundef %0, ptr noundef %1, ptr noundef %2)
  ret i1 %call
}

; Function Attrs: mustprogress nounwind uwtable
define linkonce_odr noundef ptr @_ZSt12__niter_baseIPKhET_S2_(ptr noundef %__it) #0 comdat {
entry:
  %__it.addr = alloca ptr, align 8
  store ptr %__it, ptr %__it.addr, align 8
  %0 = load ptr, ptr %__it.addr, align 8
  ret ptr %0
}

; Function Attrs: mustprogress nounwind uwtable
define linkonce_odr noundef ptr @_ZSt12__niter_baseIPhET_S1_(ptr noundef %__it) #0 comdat {
entry:
  %__it.addr = alloca ptr, align 8
  store ptr %__it, ptr %__it.addr, align 8
  %0 = load ptr, ptr %__it.addr, align 8
  ret ptr %0
}

; Function Attrs: mustprogress nounwind uwtable
define linkonce_odr noundef ptr @_ZNSt14__array_traitsIhLm20EE6_S_ptrERA20_Kh(ptr noundef nonnull align 1 dereferenceable(20) %__t) #0 comdat align 2 {
entry:
  %__t.addr = alloca ptr, align 8
  store ptr %__t, ptr %__t.addr, align 8
  %0 = load ptr, ptr %__t.addr, align 8
  %arraydecay = getelementptr inbounds [20 x i8], ptr %0, i64 0, i64 0
  ret ptr %arraydecay
}

; Function Attrs: mustprogress nounwind uwtable
define linkonce_odr noundef zeroext i1 @_ZSt11__equal_auxIPhPKhEbT_S3_T0_(ptr noundef %__first1, ptr noundef %__last1, ptr noundef %__first2) #0 comdat {
entry:
  %__first1.addr = alloca ptr, align 8
  %__last1.addr = alloca ptr, align 8
  %__first2.addr = alloca ptr, align 8
  store ptr %__first1, ptr %__first1.addr, align 8
  store ptr %__last1, ptr %__last1.addr, align 8
  store ptr %__first2, ptr %__first2.addr, align 8
  %0 = load ptr, ptr %__first1.addr, align 8
  %call = call noundef ptr @_ZSt12__niter_baseIPhET_S1_(ptr noundef %0) #12
  %1 = load ptr, ptr %__last1.addr, align 8
  %call1 = call noundef ptr @_ZSt12__niter_baseIPhET_S1_(ptr noundef %1) #12
  %2 = load ptr, ptr %__first2.addr, align 8
  %call2 = call noundef ptr @_ZSt12__niter_baseIPKhET_S2_(ptr noundef %2) #12
  %call3 = call noundef zeroext i1 @_ZSt12__equal_aux1IPhPKhEbT_S3_T0_(ptr noundef %call, ptr noundef %call1, ptr noundef %call2)
  ret i1 %call3
}

; Function Attrs: mustprogress nounwind willreturn memory(none) uwtable
define linkonce_odr noundef ptr @_ZNSt5arrayIhLm20EE4dataEv(ptr noundef nonnull align 1 dereferenceable(20) %this) #5 comdat align 2 {
entry:
  %this.addr = alloca ptr, align 8
  store ptr %this, ptr %this.addr, align 8
  %this1 = load ptr, ptr %this.addr, align 8
  %_M_elems = getelementptr inbounds %"struct.std::array", ptr %this1, i32 0, i32 0
  %call = call noundef ptr @_ZNSt14__array_traitsIhLm20EE6_S_ptrERA20_Kh(ptr noundef nonnull align 1 dereferenceable(20) %_M_elems) #12
  ret ptr %call
}

; Function Attrs: mustprogress nounwind uwtable
define linkonce_odr noundef zeroext i1 @_ZSt5equalIPhPKhEbT_S3_T0_(ptr noundef %__first1, ptr noundef %__last1, ptr noundef %__first2) #0 comdat {
entry:
  %__first1.addr = alloca ptr, align 8
  %__last1.addr = alloca ptr, align 8
  %__first2.addr = alloca ptr, align 8
  store ptr %__first1, ptr %__first1.addr, align 8
  store ptr %__last1, ptr %__last1.addr, align 8
  store ptr %__first2, ptr %__first2.addr, align 8
  %0 = load ptr, ptr %__first1.addr, align 8
  %1 = load ptr, ptr %__last1.addr, align 8
  %2 = load ptr, ptr %__first2.addr, align 8
  %call = call noundef zeroext i1 @_ZSt11__equal_auxIPhPKhEbT_S3_T0_(ptr noundef %0, ptr noundef %1, ptr noundef %2)
  ret i1 %call
}

; Function Attrs: mustprogress nounwind willreturn memory(none) uwtable
define linkonce_odr noundef ptr @_ZNSt5arrayIhLm20EE3endEv(ptr noundef nonnull align 1 dereferenceable(20) %this) #5 comdat align 2 {
entry:
  %this.addr = alloca ptr, align 8
  store ptr %this, ptr %this.addr, align 8
  %this1 = load ptr, ptr %this.addr, align 8
  %call = call noundef ptr @_ZNSt5arrayIhLm20EE4dataEv(ptr noundef nonnull align 1 dereferenceable(20) %this1) #15
  %add.ptr = getelementptr inbounds i8, ptr %call, i64 20
  ret ptr %add.ptr
}

; Function Attrs: mustprogress nounwind willreturn memory(none) uwtable
define linkonce_odr noundef ptr @_ZNSt5arrayIhLm20EE5beginEv(ptr noundef nonnull align 1 dereferenceable(20) %this) #5 comdat align 2 {
entry:
  %this.addr = alloca ptr, align 8
  store ptr %this, ptr %this.addr, align 8
  %this1 = load ptr, ptr %this.addr, align 8
  %call = call noundef ptr @_ZNSt5arrayIhLm20EE4dataEv(ptr noundef nonnull align 1 dereferenceable(20) %this1) #15
  ret ptr %call
}

; Function Attrs: mustprogress nounwind uwtable
define linkonce_odr hidden void @_ZN4llvh8ArrayRefIhEC2EPKhS3_(ptr noundef nonnull align 8 dereferenceable(16) %this, ptr noundef %begin, ptr noundef %end) unnamed_addr #0 comdat align 2 {
entry:
  %this.addr = alloca ptr, align 8
  %begin.addr = alloca ptr, align 8
  %end.addr = alloca ptr, align 8
  store ptr %this, ptr %this.addr, align 8
  store ptr %begin, ptr %begin.addr, align 8
  store ptr %end, ptr %end.addr, align 8
  %this1 = load ptr, ptr %this.addr, align 8
  %Data = getelementptr inbounds %"class.llvh::ArrayRef", ptr %this1, i32 0, i32 0
  %0 = load ptr, ptr %begin.addr, align 8
  store ptr %0, ptr %Data, align 8
  %Length = getelementptr inbounds %"class.llvh::ArrayRef", ptr %this1, i32 0, i32 1
  %1 = load ptr, ptr %end.addr, align 8
  %2 = load ptr, ptr %begin.addr, align 8
  %sub.ptr.lhs.cast = ptrtoint ptr %1 to i64
  %sub.ptr.rhs.cast = ptrtoint ptr %2 to i64
  %sub.ptr.sub = sub i64 %sub.ptr.lhs.cast, %sub.ptr.rhs.cast
  store i64 %sub.ptr.sub, ptr %Length, align 8
  ret void
}

; Function Attrs: mustprogress nounwind uwtable
define linkonce_odr hidden noundef ptr @_ZNK4llvh8ArrayRefIhE5beginEv(ptr noundef nonnull align 8 dereferenceable(16) %this) #0 comdat align 2 {
entry:
  %this.addr = alloca ptr, align 8
  store ptr %this, ptr %this.addr, align 8
  %this1 = load ptr, ptr %this.addr, align 8
  %Data = getelementptr inbounds %"class.llvh::ArrayRef", ptr %this1, i32 0, i32 0
  %0 = load ptr, ptr %Data, align 8
  ret ptr %0
}

; Function Attrs: mustprogress nounwind uwtable
define linkonce_odr hidden noundef ptr @_ZNK4llvh8ArrayRefIhE4dataEv(ptr noundef nonnull align 8 dereferenceable(16) %this) #0 comdat align 2 {
entry:
  %this.addr = alloca ptr, align 8
  store ptr %this, ptr %this.addr, align 8
  %this1 = load ptr, ptr %this.addr, align 8
  %Data = getelementptr inbounds %"class.llvh::ArrayRef", ptr %this1, i32 0, i32 0
  %0 = load ptr, ptr %Data, align 8
  ret ptr %0
}

; Function Attrs: mustprogress nounwind uwtable
define internal noundef zeroext i1 @_ZN6hermes3hbc12_GLOBAL__N_111hashIsValidEN4llvh8ArrayRefIhEE(ptr %aref.coerce0, i64 %aref.coerce1) #0 {
entry:
  %aref = alloca %"class.llvh::ArrayRef", align 8
  %header = alloca ptr, align 8
  %footer = alloca ptr, align 8
  %actual = alloca %"struct.std::array", align 1
  %agg.tmp = alloca %"class.llvh::ArrayRef", align 8
  %0 = getelementptr inbounds { ptr, i64 }, ptr %aref, i32 0, i32 0
  store ptr %aref.coerce0, ptr %0, align 8
  %1 = getelementptr inbounds { ptr, i64 }, ptr %aref, i32 0, i32 1
  store i64 %aref.coerce1, ptr %1, align 8
  %call = call noundef ptr @_ZNK4llvh8ArrayRefIhE4dataEv(ptr noundef nonnull align 8 dereferenceable(16) %aref)
  store ptr %call, ptr %header, align 8
  %call1 = call noundef ptr @_ZNK4llvh8ArrayRefIhE4dataEv(ptr noundef nonnull align 8 dereferenceable(16) %aref)
  %2 = load ptr, ptr %header, align 8
  %fileLength = getelementptr inbounds %"struct.hermes::hbc::BytecodeFileHeader", ptr %2, i32 0, i32 3
  %3 = load i32, ptr %fileLength, align 1
  %idx.ext = zext i32 %3 to i64
  %add.ptr = getelementptr inbounds i8, ptr %call1, i64 %idx.ext
  %add.ptr2 = getelementptr inbounds i8, ptr %add.ptr, i64 -20
  store ptr %add.ptr2, ptr %footer, align 8
  %call3 = call noundef ptr @_ZNK4llvh8ArrayRefIhE5beginEv(ptr noundef nonnull align 8 dereferenceable(16) %aref)
  %4 = load ptr, ptr %footer, align 8
  call void @_ZN4llvh8ArrayRefIhEC2EPKhS3_(ptr noundef nonnull align 8 dereferenceable(16) %agg.tmp, ptr noundef %call3, ptr noundef %4)
  %5 = getelementptr inbounds { ptr, i64 }, ptr %agg.tmp, i32 0, i32 0
  %6 = load ptr, ptr %5, align 8
  %7 = getelementptr inbounds { ptr, i64 }, ptr %agg.tmp, i32 0, i32 1
  %8 = load i64, ptr %7, align 8
  call void @_ZN4llvh4SHA14hashENS_8ArrayRefIhEE(ptr sret(%"struct.std::array") align 1 %actual, ptr %6, i64 %8)
  %call4 = call noundef ptr @_ZNSt5arrayIhLm20EE5beginEv(ptr noundef nonnull align 1 dereferenceable(20) %actual) #15
  %call5 = call noundef ptr @_ZNSt5arrayIhLm20EE3endEv(ptr noundef nonnull align 1 dereferenceable(20) %actual) #15
  %9 = load ptr, ptr %footer, align 8
  %fileHash = getelementptr inbounds %"struct.hermes::hbc::BytecodeFileFooter", ptr %9, i32 0, i32 0
  %arraydecay = getelementptr inbounds [20 x i8], ptr %fileHash, i64 0, i64 0
  %call6 = call noundef zeroext i1 @_ZSt5equalIPhPKhEbT_S3_T0_(ptr noundef %call4, ptr noundef %call5, ptr noundef %arraydecay)
  ret i1 %call6
}

; Function Attrs: mustprogress nounwind uwtable
define hidden noundef zeroext i1 @_ZN6hermes3hbc20BCProviderFromBuffer19bytecodeHashIsValidEN4llvh8ArrayRefIhEE(ptr %aref.coerce0, i64 %aref.coerce1) #0 align 2 {
entry:
  %aref = alloca %"class.llvh::ArrayRef", align 8
  %agg.tmp = alloca %"class.llvh::ArrayRef", align 8
  %0 = getelementptr inbounds { ptr, i64 }, ptr %aref, i32 0, i32 0
  store ptr %aref.coerce0, ptr %0, align 8
  %1 = getelementptr inbounds { ptr, i64 }, ptr %aref, i32 0, i32 1
  store i64 %aref.coerce1, ptr %1, align 8
  call void @llvm.memcpy.p0.p0.i64(ptr align 8 %agg.tmp, ptr align 8 %aref, i64 16, i1 false)
  %2 = getelementptr inbounds { ptr, i64 }, ptr %agg.tmp, i32 0, i32 0
  %3 = load ptr, ptr %2, align 8
  %4 = getelementptr inbounds { ptr, i64 }, ptr %agg.tmp, i32 0, i32 1
  %5 = load i64, ptr %4, align 8
  %call = call noundef zeroext i1 @_ZN6hermes3hbc12_GLOBAL__N_111hashIsValidEN4llvh8ArrayRefIhEE(ptr %3, i64 %5)
  ret i1 %call
}