; Function Attrs: mustprogress nounwind uwtable
define hidden noundef zeroext i1 @_ZN6hermes3hbc20BCProviderFromBuffer19bytecodeHashIsValidEN4llvh8ArrayRefIhEE(ptr %aref.coerce0, i64 %aref.coerce1) local_unnamed_addr #0 align 2 {
entry:
  %actual.i = alloca %"struct.std::array", align 1
  call void @llvm.lifetime.start.p0(i64 20, ptr nonnull %actual.i)
  %fileLength.i = getelementptr inbounds i8, ptr %aref.coerce0, i64 32
  %0 = load i32, ptr %fileLength.i, align 1
  %idx.ext.i = zext i32 %0 to i64
  %add.ptr.i = getelementptr inbounds i8, ptr %aref.coerce0, i64 %idx.ext.i
  %add.ptr2.i = getelementptr inbounds i8, ptr %add.ptr.i, i64 -20
  %sub.ptr.lhs.cast.i.i = ptrtoint ptr %add.ptr2.i to i64
  %sub.ptr.rhs.cast.i.i = ptrtoint ptr %aref.coerce0 to i64
  %sub.ptr.sub.i.i = sub i64 %sub.ptr.lhs.cast.i.i, %sub.ptr.rhs.cast.i.i
  call void @_ZN4llvh4SHA14hashENS_8ArrayRefIhEE(ptr nonnull sret(%"struct.std::array") align 1 %actual.i, ptr %aref.coerce0, i64 %sub.ptr.sub.i.i) #19
  %bcmp.i.i.i.i.i = call i32 @bcmp(ptr noundef nonnull dereferenceable(20) %actual.i, ptr noundef nonnull dereferenceable(20) %add.ptr2.i, i64 20)
  %tobool1.not.i.i.i.i.i = icmp eq i32 %bcmp.i.i.i.i.i, 0
  call void @llvm.lifetime.end.p0(i64 20, ptr nonnull %actual.i)
  ret i1 %tobool1.not.i.i.i.i.i
}